target datalayout = "e-m:e-p270:32:32-p271:32:32-p272:64:64-i64:64-i128:128-f80:128-n8:16:32:64-S128"
target triple = "x86_64-pc-linux-gnu"

%struct._generic_SUNAdaptController = type { ptr, ptr, ptr }
%struct.SUNAdaptControllerContent_MRIHTol_ = type { ptr, ptr, double, double, double }

; Function Attrs: nounwind uwtable
define i32 @SUNAdaptController_SetParams_MRIHTol(ptr noundef %0, double noundef %1, double noundef %2, double noundef %3) #0 {
  %5 = alloca ptr, align 8
  %6 = alloca double, align 8
  %7 = alloca double, align 8
  %8 = alloca double, align 8
  %9 = alloca ptr, align 8
  store ptr %0, ptr %5, align 8, !tbaa !3
  store double %1, ptr %6, align 8, !tbaa !32
  store double %2, ptr %7, align 8, !tbaa !32
  store double %3, ptr %8, align 8, !tbaa !32
  call void @llvm.lifetime.start.p0(i64 8, ptr %9) #5
  %10 = load ptr, ptr %5, align 8, !tbaa !3
  %11 = getelementptr inbounds nuw %struct._generic_SUNAdaptController, ptr %10, i32 0, i32 2
  %12 = load ptr, ptr %11, align 8, !tbaa !37
  store ptr %12, ptr %9, align 8, !tbaa !8
  %13 = load double, ptr %6, align 8, !tbaa !32
  %14 = fcmp olt double %13, 1.000000e+00
  br i1 %14, label %15, label %20

15:                                               ; preds = %4
  %16 = load ptr, ptr %5, align 8, !tbaa !3
  %17 = getelementptr inbounds nuw %struct._generic_SUNAdaptController, ptr %16, i32 0, i32 0
  %18 = load ptr, ptr %17, align 8, !tbaa !31
  %19 = getelementptr inbounds nuw %struct.SUNAdaptControllerContent_MRIHTol_, ptr %18, i32 0, i32 2
  store double 2.000000e+01, ptr %19, align 8, !tbaa !28
  br label %26

20:                                               ; preds = %4
  %21 = load double, ptr %6, align 8, !tbaa !32
  %22 = load ptr, ptr %5, align 8, !tbaa !3
  %23 = getelementptr inbounds nuw %struct._generic_SUNAdaptController, ptr %22, i32 0, i32 0
  %24 = load ptr, ptr %23, align 8, !tbaa !31
  %25 = getelementptr inbounds nuw %struct.SUNAdaptControllerContent_MRIHTol_, ptr %24, i32 0, i32 2
  store double %21, ptr %25, align 8, !tbaa !28
  br label %26

26:                                               ; preds = %20, %15
  %27 = load double, ptr %7, align 8, !tbaa !32
  %28 = fcmp ole double %27, 0.000000e+00
  br i1 %28, label %29, label %34

29:                                               ; preds = %26
  %30 = load ptr, ptr %5, align 8, !tbaa !3
  %31 = getelementptr inbounds nuw %struct._generic_SUNAdaptController, ptr %30, i32 0, i32 0
  %32 = load ptr, ptr %31, align 8, !tbaa !31
  %33 = getelementptr inbounds nuw %struct.SUNAdaptControllerContent_MRIHTol_, ptr %32, i32 0, i32 3
  store double 1.000000e-05, ptr %33, align 8, !tbaa !29
  br label %40

34:                                               ; preds = %26
  %35 = load double, ptr %7, align 8, !tbaa !32
  %36 = load ptr, ptr %5, align 8, !tbaa !3
  %37 = getelementptr inbounds nuw %struct._generic_SUNAdaptController, ptr %36, i32 0, i32 0
  %38 = load ptr, ptr %37, align 8, !tbaa !31
  %39 = getelementptr inbounds nuw %struct.SUNAdaptControllerContent_MRIHTol_, ptr %38, i32 0, i32 3
  store double %35, ptr %39, align 8, !tbaa !29
  br label %40

40:                                               ; preds = %34, %29
  %41 = load double, ptr %8, align 8, !tbaa !32
  %42 = fcmp ole double %41, 0.000000e+00
  br i1 %42, label %46, label %43

43:                                               ; preds = %40
  %44 = load double, ptr %8, align 8, !tbaa !32
  %45 = fcmp ogt double %44, 1.000000e+00
  br i1 %45, label %46, label %51

46:                                               ; preds = %43, %40
  %47 = load ptr, ptr %5, align 8, !tbaa !3
  %48 = getelementptr inbounds nuw %struct._generic_SUNAdaptController, ptr %47, i32 0, i32 0
  %49 = load ptr, ptr %48, align 8, !tbaa !31
  %50 = getelementptr inbounds nuw %struct.SUNAdaptControllerContent_MRIHTol_, ptr %49, i32 0, i32 4
  store double 1.000000e+00, ptr %50, align 8, !tbaa !30
  br label %57

51:                                               ; preds = %43
  %52 = load double, ptr %8, align 8, !tbaa !32
  %53 = load ptr, ptr %5, align 8, !tbaa !3
  %54 = getelementptr inbounds nuw %struct._generic_SUNAdaptController, ptr %53, i32 0, i32 0
  %55 = load ptr, ptr %54, align 8, !tbaa !31
  %56 = getelementptr inbounds nuw %struct.SUNAdaptControllerContent_MRIHTol_, ptr %55, i32 0, i32 4
  store double %52, ptr %56, align 8, !tbaa !30
  br label %57

57:                                               ; preds = %51, %46
  call void @llvm.lifetime.end.p0(i64 8, ptr %9) #5
  ret i32 0
}